target datalayout = "e-m:e-p270:32:32-p271:32:32-p272:64:64-i64:64-i128:128-f80:128-n8:16:32:64-S128"
target triple = "x86_64-pc-linux-gnu"

%struct.PauliHamil = type { ptr, ptr, i32, i32 }

; Function Attrs: nounwind uwtable
define i32 @isValidPauliCode(i32 noundef %0) #0 {
  %2 = alloca i32, align 4
  store i32 %0, ptr %2, align 4, !tbaa !9
  %3 = load i32, ptr %2, align 4, !tbaa !9
  %4 = icmp eq i32 %3, 0
  br i1 %4, label %14, label %5

5:                                                ; preds = %1
  %6 = load i32, ptr %2, align 4, !tbaa !9
  %7 = icmp eq i32 %6, 1
  br i1 %7, label %14, label %8

8:                                                ; preds = %5
  %9 = load i32, ptr %2, align 4, !tbaa !9
  %10 = icmp eq i32 %9, 2
  br i1 %10, label %14, label %11

11:                                               ; preds = %8
  %12 = load i32, ptr %2, align 4, !tbaa !9
  %13 = icmp eq i32 %12, 3
  br label %14

14:                                               ; preds = %11, %8, %5, %1
  %15 = phi i1 [ true, %8 ], [ true, %5 ], [ true, %1 ], [ %13, %11 ]
  %16 = zext i1 %15 to i32
  ret i32 %16
}

; Function Attrs: nounwind uwtable
define void @QuESTAssert(i32 noundef %0, i32 noundef %1, ptr noundef %2) #0 {
  %4 = alloca i32, align 4
  %5 = alloca i32, align 4
  %6 = alloca ptr, align 8
  store i32 %0, ptr %4, align 4, !tbaa !9
  store i32 %1, ptr %5, align 4, !tbaa !9
  store ptr %2, ptr %6, align 8, !tbaa !4
  %7 = load i32, ptr %4, align 4, !tbaa !9
  %8 = icmp ne i32 %7, 0
  br i1 %8, label %15, label %9

9:                                                ; preds = %3
  %10 = load i32, ptr %5, align 4, !tbaa !9
  %11 = zext i32 %10 to i64
  %12 = getelementptr inbounds nuw [92 x ptr], ptr @errorMessages, i64 0, i64 %11
  %13 = load ptr, ptr %12, align 8, !tbaa !4
  %14 = load ptr, ptr %6, align 8, !tbaa !4
  call void @invalidQuESTInputError(ptr noundef %13, ptr noundef %14)
  br label %15

15:                                               ; preds = %9, %3
  ret void
}

; Function Attrs: nounwind uwtable
define void @validatePauliCodes(ptr noundef %0, i32 noundef %1, ptr noundef %2) #0 {
  %4 = alloca ptr, align 8
  %5 = alloca i32, align 4
  %6 = alloca ptr, align 8
  %7 = alloca i32, align 4
  %8 = alloca i32, align 4
  store ptr %0, ptr %4, align 8, !tbaa !48
  store i32 %1, ptr %5, align 4, !tbaa !9
  store ptr %2, ptr %6, align 8, !tbaa !4
  call void @llvm.lifetime.start.p0(i64 4, ptr %7) #7
  store i32 0, ptr %7, align 4, !tbaa !9
  br label %9

9:                                                ; preds = %23, %3
  %10 = load i32, ptr %7, align 4, !tbaa !9
  %11 = load i32, ptr %5, align 4, !tbaa !9
  %12 = icmp slt i32 %10, %11
  br i1 %12, label %14, label %13

13:                                               ; preds = %9
  call void @llvm.lifetime.end.p0(i64 4, ptr %7) #7
  br label %26

14:                                               ; preds = %9
  call void @llvm.lifetime.start.p0(i64 4, ptr %8) #7
  %15 = load ptr, ptr %4, align 8, !tbaa !48
  %16 = load i32, ptr %7, align 4, !tbaa !9
  %17 = sext i32 %16 to i64
  %18 = getelementptr inbounds i32, ptr %15, i64 %17
  %19 = load i32, ptr %18, align 4, !tbaa !9
  store i32 %19, ptr %8, align 4, !tbaa !9
  %20 = load i32, ptr %8, align 4, !tbaa !9
  %21 = call i32 @isValidPauliCode(i32 noundef %20)
  %22 = load ptr, ptr %6, align 8, !tbaa !4
  call void @QuESTAssert(i32 noundef %21, i32 noundef 44, ptr noundef %22)
  call void @llvm.lifetime.end.p0(i64 4, ptr %8) #7
  br label %23

23:                                               ; preds = %14
  %24 = load i32, ptr %7, align 4, !tbaa !9
  %25 = add nsw i32 %24, 1
  store i32 %25, ptr %7, align 4, !tbaa !9
  br label %9

26:                                               ; preds = %13
  ret void
}

; Function Attrs: nounwind uwtable
define void @validateHamilParams(i32 noundef %0, i32 noundef %1, ptr noundef %2) #0 {
  %4 = alloca i32, align 4
  %5 = alloca i32, align 4
  %6 = alloca ptr, align 8
  store i32 %0, ptr %4, align 4, !tbaa !9
  store i32 %1, ptr %5, align 4, !tbaa !9
  store ptr %2, ptr %6, align 8, !tbaa !4
  %7 = load i32, ptr %4, align 4, !tbaa !9
  %8 = icmp sgt i32 %7, 0
  br i1 %8, label %9, label %12

9:                                                ; preds = %3
  %10 = load i32, ptr %5, align 4, !tbaa !9
  %11 = icmp sgt i32 %10, 0
  br label %12

12:                                               ; preds = %9, %3
  %13 = phi i1 [ false, %3 ], [ %11, %9 ]
  %14 = zext i1 %13 to i32
  %15 = load ptr, ptr %6, align 8, !tbaa !4
  call void @QuESTAssert(i32 noundef %14, i32 noundef 58, ptr noundef %15)
  ret void
}

; Function Attrs: nounwind uwtable
define void @validatePauliHamil(ptr noundef byval(%struct.PauliHamil) align 8 %0, ptr noundef %1) #0 {
  %3 = alloca ptr, align 8
  store ptr %1, ptr %3, align 8, !tbaa !4
  %4 = getelementptr inbounds nuw %struct.PauliHamil, ptr %0, i32 0, i32 3
  %5 = load i32, ptr %4, align 4, !tbaa !49
  %6 = getelementptr inbounds nuw %struct.PauliHamil, ptr %0, i32 0, i32 2
  %7 = load i32, ptr %6, align 8, !tbaa !51
  %8 = load ptr, ptr %3, align 8, !tbaa !4
  call void @validateHamilParams(i32 noundef %5, i32 noundef %7, ptr noundef %8)
  %9 = getelementptr inbounds nuw %struct.PauliHamil, ptr %0, i32 0, i32 0
  %10 = load ptr, ptr %9, align 8, !tbaa !52
  %11 = getelementptr inbounds nuw %struct.PauliHamil, ptr %0, i32 0, i32 2
  %12 = load i32, ptr %11, align 8, !tbaa !51
  %13 = getelementptr inbounds nuw %struct.PauliHamil, ptr %0, i32 0, i32 3
  %14 = load i32, ptr %13, align 4, !tbaa !49
  %15 = mul nsw i32 %12, %14
  %16 = load ptr, ptr %3, align 8, !tbaa !4
  call void @validatePauliCodes(ptr noundef %10, i32 noundef %15, ptr noundef %16)
  ret void
}