; Function Attrs: nounwind uwtable
define void @validatePauliHamil(ptr noundef readonly byval(%struct.PauliHamil) align 8 captures(none) %0, ptr noundef %1) local_unnamed_addr #3 {
  %3 = getelementptr inbounds nuw i8, ptr %0, i64 20
  %4 = load i32, ptr %3, align 4, !tbaa !33
  %5 = getelementptr inbounds nuw i8, ptr %0, i64 16
  %6 = load i32, ptr %5, align 8, !tbaa !35
  %7 = icmp slt i32 %4, 1
  %8 = icmp slt i32 %6, 1
  %.not3.i = or i1 %7, %8
  br i1 %.not3.i, label %9, label %validateHamilParams.exit

9:                                                ; preds = %2
  tail call void @invalidQuESTInputError(ptr noundef nonnull @.str.60, ptr noundef %1)
  br label %validateHamilParams.exit

validateHamilParams.exit:                         ; preds = %2, %9
  %10 = load ptr, ptr %0, align 8, !tbaa !36
  %11 = mul nsw i32 %6, %4
  %12 = icmp sgt i32 %11, 0
  br i1 %12, label %.lr.ph.preheader.i, label %validatePauliCodes.exit

.lr.ph.preheader.i:                               ; preds = %validateHamilParams.exit
  %wide.trip.count.i = zext nneg i32 %11 to i64
  br label %.lr.ph.i

.lr.ph.i:                                         ; preds = %QuESTAssert.exit.i, %.lr.ph.preheader.i
  %indvars.iv.i = phi i64 [ 0, %.lr.ph.preheader.i ], [ %indvars.iv.next.i, %QuESTAssert.exit.i ]
  %13 = getelementptr inbounds nuw i32, ptr %10, i64 %indvars.iv.i
  %14 = load i32, ptr %13, align 4, !tbaa !20
  %narrow.i.i = icmp ugt i32 %14, 3
  br i1 %narrow.i.i, label %15, label %QuESTAssert.exit.i

15:                                               ; preds = %.lr.ph.i
  tail call void @invalidQuESTInputError(ptr noundef nonnull @.str.46, ptr noundef %1)
  br label %QuESTAssert.exit.i

QuESTAssert.exit.i:                               ; preds = %15, %.lr.ph.i
  %indvars.iv.next.i = add nuw nsw i64 %indvars.iv.i, 1
  %exitcond.not.i = icmp eq i64 %indvars.iv.next.i, %wide.trip.count.i
  br i1 %exitcond.not.i, label %validatePauliCodes.exit, label %.lr.ph.i

validatePauliCodes.exit:                          ; preds = %QuESTAssert.exit.i, %validateHamilParams.exit
  ret void
}